Certificate:
    Data:
        Version: 3 (0x2)
        Serial Number:
            6e:54:e8:d0:80:b3:b3:6c:a6:b9:fb:61:db:f2:98:2e
    Signature Algorithm: ecdsa-with-SHA256
        Issuer: C=DE, O=CONTACT Software, OU=Demo, CN=CONTACT Elements Demo Intermediate CA/dnQualifier=dd58b944-2946-4809-a74e-ba6f949f0b81
        Validity
            Not Before: Jan 21 06:09:24 2019 GMT
            Not After : Apr 21 06:09:24 2019 GMT
        Subject: C=DE, O=CONTACT Software, OU=rbei, CN=SEZGCN1102809L.rbeigcn.com
        Subject Public Key Info:
            Public Key Algorithm: id-ecPublicKey
                Public-Key: (256 bit)
                pub: 
                    04:f2:c2:16:bb:40:c7:00:6f:00:99:47:1f:71:a3:
                    19:3b:a9:f1:8c:38:5f:05:f5:fa:99:22:af:9a:c6:
                    dd:67:63:55:cf:ff:84:ac:b0:4a:25:b0:ee:eb:f9:
                    c4:2d:25:9e:7e:0a:0a:97:03:06:87:a5:ef:26:c0:
                    37:1c:df:79:f1
                ASN1 OID: prime256v1
                NIST CURVE: P-256
        X509v3 extensions:
            X509v3 Basic Constraints: 
                CA:FALSE
            X509v3 Key Usage: critical
                Digital Signature, Key Encipherment
            X509v3 Extended Key Usage: 
                TLS Web Server Authentication, TLS Web Client Authentication
            X509v3 Subject Key Identifier: 
                AA:C6:B7:C6:7C:2F:B5:EF:89:42:6A:30:48:4D:1A:CE:76:54:81:07
            X509v3 Authority Key Identifier: 
                keyid:3A:24:87:57:F6:8B:C7:06:66:D3:E5:6A:E1:2B:E8:A2:01:86:4B:2B

            X509v3 Subject Alternative Name: critical
                DNS:sezgcn1102809l.rbeigcn.com, DNS:localhost, IP Address:100.67.133.245, IP Address:127.0.0.1
    Signature Algorithm: ecdsa-with-SHA256
         30:45:02:21:00:8a:6b:3e:5c:58:b7:a9:bf:be:eb:59:49:30:
         31:16:3a:45:fc:61:0e:55:79:2d:38:52:08:80:67:9f:e2:6f:
         8e:02:20:75:1d:b3:6c:ae:f2:81:fd:f8:8b:d0:db:4c:99:bc:
         85:1f:9f:48:a1:c6:1c:51:bc:f1:51:e7:a3:91:b2:7e:69
-----BEGIN CERTIFICATE-----
MIICsDCCAlagAwIBAgIQblTo0ICzs2ymufth2/KYLjAKBggqhkjOPQQDAjCBljEL
MAkGA1UEBhMCREUxGTAXBgNVBAoMEENPTlRBQ1QgU29mdHdhcmUxDTALBgNVBAsM
BERlbW8xLjAsBgNVBAMMJUNPTlRBQ1QgRWxlbWVudHMgRGVtbyBJbnRlcm1lZGlh
dGUgQ0ExLTArBgNVBC4TJGRkNThiOTQ0LTI5NDYtNDgwOS1hNzRlLWJhNmY5NDlm
MGI4MTAeFw0xOTAxMjEwNjA5MjRaFw0xOTA0MjEwNjA5MjRaMFwxCzAJBgNVBAYT
AkRFMRkwFwYDVQQKDBBDT05UQUNUIFNvZnR3YXJlMQ0wCwYDVQQLDARyYmVpMSMw
IQYDVQQDDBpTRVpHQ04xMTAyODA5TC5yYmVpZ2NuLmNvbTBZMBMGByqGSM49AgEG
CCqGSM49AwEHA0IABPLCFrtAxwBvAJlHH3GjGTup8Yw4XwX1+pkir5rG3WdjVc//
hKywSiWw7uv5xC0lnn4KCpcDBoel7ybANxzfefGjgb4wgbswCQYDVR0TBAIwADAO
BgNVHQ8BAf8EBAMCBaAwHQYDVR0lBBYwFAYIKwYBBQUHAwEGCCsGAQUFBwMCMB0G
A1UdDgQWBBSqxrfGfC+174lCajBITRrOdlSBBzAfBgNVHSMEGDAWgBQ6JIdX9ovH
BmbT5WrhK+iiAYZLKzA/BgNVHREBAf8ENTAzghpzZXpnY24xMTAyODA5bC5yYmVp
Z2NuLmNvbYIJbG9jYWxob3N0hwRkQ4X1hwR/AAABMAoGCCqGSM49BAMCA0gAMEUC
IQCKaz5cWLepv77rWUkwMRY6RfxhDlV5LThSCIBnn+JvjgIgdR2zbK7ygf34i9Db
TJm8hR+fSKHGHFG88VHno5Gyfmk=
-----END CERTIFICATE-----
