Certificate:
    Data:
        Version: 3 (0x2)
        Serial Number:
            65:26:72:9c:d2:cc:b3:83:d2:9a:ed:c4:24:9e:b6:8a
    Signature Algorithm: ecdsa-with-SHA256
        Issuer: CN=CONTACT Elements Demo Root CA/dnQualifier=dd58b944-2946-4809-a74e-ba6f949f0b81, OU=DEMO, O=CONTACT SOFTWARE, C=DE
        Validity
            Not Before: Jan 21 06:09:22 2019 GMT
            Not After : Jan 20 06:09:22 2024 GMT
        Subject: C=DE, O=CONTACT Software, OU=Demo, CN=CONTACT Elements Demo Intermediate CA/dnQualifier=dd58b944-2946-4809-a74e-ba6f949f0b81
        Subject Public Key Info:
            Public Key Algorithm: id-ecPublicKey
                Public-Key: (256 bit)
                pub: 
                    04:da:d8:97:c8:56:48:2d:d5:f4:78:76:4b:0e:f1:
                    65:f0:fc:3f:f5:2f:3f:11:1e:00:fe:05:dd:00:f7:
                    ed:6f:28:a3:65:d9:2b:7c:13:83:9e:8c:0a:fd:9e:
                    f0:6e:f5:13:ac:69:c8:32:a3:55:aa:a4:97:3e:90:
                    18:56:c0:9d:06
                ASN1 OID: prime256v1
                NIST CURVE: P-256
        X509v3 extensions:
            X509v3 Subject Key Identifier: 
                3A:24:87:57:F6:8B:C7:06:66:D3:E5:6A:E1:2B:E8:A2:01:86:4B:2B
            X509v3 Authority Key Identifier: 
                keyid:CF:7E:BA:83:A8:70:18:7C:69:13:8C:54:58:7C:7A:E0:8C:F3:D7:01

            X509v3 Basic Constraints: critical
                CA:TRUE, pathlen:0
            X509v3 Key Usage: critical
                Digital Signature, Certificate Sign, CRL Sign
    Signature Algorithm: ecdsa-with-SHA256
         30:45:02:20:76:ef:b1:19:93:85:5c:c1:14:0a:45:82:f4:eb:
         c7:e5:ca:02:f2:50:c1:57:0d:0a:c2:0b:77:a1:52:0b:fb:c0:
         02:21:00:83:b4:09:c1:78:85:0d:26:43:29:0c:c2:cb:49:5c:
         44:58:9a:d8:c2:56:93:1d:21:ef:0d:70:07:d9:bc:04:a5
-----BEGIN CERTIFICATE-----
MIICijCCAjCgAwIBAgIQZSZynNLMs4PSmu3EJJ62ijAKBggqhkjOPQQDAjCBjjEm
MCQGA1UEAwwdQ09OVEFDVCBFbGVtZW50cyBEZW1vIFJvb3QgQ0ExLTArBgNVBC4T
JGRkNThiOTQ0LTI5NDYtNDgwOS1hNzRlLWJhNmY5NDlmMGI4MTENMAsGA1UECwwE
REVNTzEZMBcGA1UECgwQQ09OVEFDVCBTT0ZUV0FSRTELMAkGA1UEBhMCREUwHhcN
MTkwMTIxMDYwOTIyWhcNMjQwMTIwMDYwOTIyWjCBljELMAkGA1UEBhMCREUxGTAX
BgNVBAoMEENPTlRBQ1QgU29mdHdhcmUxDTALBgNVBAsMBERlbW8xLjAsBgNVBAMM
JUNPTlRBQ1QgRWxlbWVudHMgRGVtbyBJbnRlcm1lZGlhdGUgQ0ExLTArBgNVBC4T
JGRkNThiOTQ0LTI5NDYtNDgwOS1hNzRlLWJhNmY5NDlmMGI4MTBZMBMGByqGSM49
AgEGCCqGSM49AwEHA0IABNrYl8hWSC3V9Hh2Sw7xZfD8P/UvPxEeAP4F3QD37W8o
o2XZK3wTg56MCv2e8G71E6xpyDKjVaqklz6QGFbAnQajZjBkMB0GA1UdDgQWBBQ6
JIdX9ovHBmbT5WrhK+iiAYZLKzAfBgNVHSMEGDAWgBTPfrqDqHAYfGkTjFRYfHrg
jPPXATASBgNVHRMBAf8ECDAGAQH/AgEAMA4GA1UdDwEB/wQEAwIBhjAKBggqhkjO
PQQDAgNIADBFAiB277EZk4VcwRQKRYL068flygLyUMFXDQrCC3ehUgv7wAIhAIO0
CcF4hQ0mQykMwstJXERYmtjCVpMdIe8NcAfZvASl
-----END CERTIFICATE-----
